target datalayout = "e-m:e-p270:32:32-p271:32:32-p272:64:64-i64:64-i128:128-f80:128-n8:16:32:64-S128"
target triple = "x86_64-pc-linux-gnu"

@hf_fmp_msgNum = internal global i32 0, align 4

; Function Attrs: null_pointer_is_valid sspstrong uwtable
define internal i32 @dissect_FMP_Flush_reply(ptr noundef %0, ptr noundef %1, ptr noundef %2, ptr noundef %3) #0 {
  %5 = alloca ptr, align 8
  %6 = alloca ptr, align 8
  %7 = alloca ptr, align 8
  %8 = alloca ptr, align 8
  %9 = alloca i32, align 4
  %10 = alloca i32, align 4
  store ptr %0, ptr %5, align 8
  store ptr %1, ptr %6, align 8
  store ptr %2, ptr %7, align 8
  store ptr %3, ptr %8, align 8
  call void @llvm.lifetime.start.p0(i64 4, ptr %9) #4
  call void @llvm.lifetime.start.p0(i64 4, ptr %10) #4
  store i32 0, ptr %10, align 4
  %11 = load ptr, ptr %5, align 8
  %12 = load i32, ptr %10, align 4
  %13 = load ptr, ptr %7, align 8
  %14 = call i32 @dissect_fmp_status(ptr noundef %11, i32 noundef %12, ptr noundef %13, ptr noundef %9)
  store i32 %14, ptr %10, align 4
  %15 = load i32, ptr %9, align 4
  %16 = icmp eq i32 %15, 0
  br i1 %16, label %17, label %23

17:                                               ; preds = %4
  %18 = load ptr, ptr %5, align 8
  %19 = load ptr, ptr %7, align 8
  %20 = load i32, ptr @hf_fmp_msgNum, align 4
  %21 = load i32, ptr %10, align 4
  %22 = call i32 @dissect_rpc_uint32(ptr noundef %18, ptr noundef %19, i32 noundef %20, i32 noundef %21)
  store i32 %22, ptr %10, align 4
  br label %23

23:                                               ; preds = %17, %4
  %24 = load i32, ptr %10, align 4
  call void @llvm.lifetime.end.p0(i64 4, ptr %10) #4
  call void @llvm.lifetime.end.p0(i64 4, ptr %9) #4
  ret i32 %24
}